	.file	"main.cpp"
	.text
	.local	_ZStL8__ioinit
	.comm	_ZStL8__ioinit,1,1
	.section	.rodata
.LC0:
	.string	"/bolts"
.LC1:
	.string	"Open failed:%s\n"
.LC2:
	.string	"ftruncate: %s\n"
.LC3:
	.string	"mmap failed:%s\n"
.LC4:
	.string	"(Child): process #"
	.align 8
.LC5:
	.string	" about to increment the counter, old value  was: "
	.align 8
.LC6:
	.string	" is done incrementing this counter , new value  is: "
.LC7:
	.string	" bruv"
.LC8:
	.string	"(Child # "
	.align 8
.LC9:
	.string	"): about to go sleep for like "
.LC10:
	.string	" nanoseconds you get me bruv"
.LC11:
	.string	"something went wrong "
.LC12:
	.string	"): Done... all went smooth"
.LC13:
	.string	"(Parent): waiting.........."
.LC14:
	.string	"(Parent): "
	.align 8
.LC15:
	.string	" is the final value of the counter, expected value is "
	.text
	.globl	main
	.type	main, @function
main:
.LFB2486:
	.cfi_startproc
	pushq	%rbp
	.cfi_def_cfa_offset 16
	.cfi_offset 6, -16
	movq	%rsp, %rbp
	.cfi_def_cfa_register 6
	pushq	%rbx
	subq	$88, %rsp
	.cfi_offset 3, -24
	movl	%edi, -84(%rbp)
	movq	%rsi, -96(%rbp)
	cmpl	$1, -84(%rbp)
	je	.L2
	movl	$.LC0, %edi
	call	shm_unlink
	movl	$0, %eax
	jmp	.L15
.L2:
	movl	$511, %edx
	movl	$66, %esi
	movl	$.LC0, %edi
	call	shm_open
	movl	%eax, -32(%rbp)
	cmpl	$-1, -32(%rbp)
	jne	.L4
	call	__errno_location
	movl	(%rax), %eax
	movl	%eax, %edi
	call	strerror
	movq	%rax, %rdx
	movq	stderr(%rip), %rax
	movl	$.LC1, %esi
	movq	%rax, %rdi
	movl	$0, %eax
	call	fprintf
	movl	$1, %eax
	jmp	.L15
.L4:
	movl	-32(%rbp), %eax
	movl	$4, %esi
	movl	%eax, %edi
	call	ftruncate
	cmpl	$-1, %eax
	sete	%al
	testb	%al, %al
	je	.L5
	call	__errno_location
	movl	(%rax), %eax
	movl	%eax, %edi
	call	strerror
	movq	%rax, %rdx
	movq	stderr(%rip), %rax
	movl	$.LC2, %esi
	movq	%rax, %rdi
	movl	$0, %eax
	call	fprintf
	movl	$1, %eax
	jmp	.L15
.L5:
	movl	$0, %r9d
	movl	$-1, %r8d
	movl	$33, %ecx
	movl	$3, %edx
	movl	$4, %esi
	movl	$0, %edi
	call	mmap
	movq	%rax, -40(%rbp)
	cmpq	$-1, -40(%rbp)
	jne	.L6
	call	__errno_location
	movl	(%rax), %eax
	movl	%eax, %edi
	call	strerror
	movq	%rax, %rdx
	movq	stderr(%rip), %rax
	movl	$.LC3, %esi
	movq	%rax, %rdi
	movl	$0, %eax
	call	fprintf
	movl	$1, %eax
	jmp	.L15
.L6:
	movl	$0, -20(%rbp)
	movq	-40(%rbp), %rax
	movl	$0, (%rax)
	movl	$924, -44(%rbp)
	jmp	.L7
.L12:
	call	fork
	testl	%eax, %eax
	sete	%al
	testb	%al, %al
	je	.L8
	call	getpid
	movl	%eax, %edx
	movslq	%edx, %rax
	imulq	$1717986919, %rax, %rax
	shrq	$32, %rax
	sarl	$2, %eax
	movl	%edx, %ecx
	sarl	$31, %ecx
	subl	%ecx, %eax
	movl	%eax, -48(%rbp)
	movl	-48(%rbp), %ecx
	movl	%ecx, %eax
	sall	$2, %eax
	addl	%ecx, %eax
	addl	%eax, %eax
	subl	%eax, %edx
	movl	%edx, -48(%rbp)
	movl	$0, -24(%rbp)
	jmp	.L9
.L11:
	movl	$.LC4, %esi
	movl	$_ZSt4cout, %edi
	call	_ZStlsISt11char_traitsIcEERSt13basic_ostreamIcT_ES5_PKc
	movq	%rax, %rbx
	call	getpid
	movl	%eax, %esi
	movq	%rbx, %rdi
	call	_ZNSolsEi
	movl	$.LC5, %esi
	movq	%rax, %rdi
	call	_ZStlsISt11char_traitsIcEERSt13basic_ostreamIcT_ES5_PKc
	movq	%rax, %rdx
	movq	-40(%rbp), %rax
	movl	(%rax), %eax
	movl	%eax, %esi
	movq	%rdx, %rdi
	call	_ZNSolsEi
	movl	$_ZSt4endlIcSt11char_traitsIcEERSt13basic_ostreamIT_T0_ES6_, %esi
	movq	%rax, %rdi
	call	_ZNSolsEPFRSoS_E
	movq	-40(%rbp), %rax
	movl	(%rax), %eax
	leal	1(%rax), %edx
	movq	-40(%rbp), %rax
	movl	%edx, (%rax)
	movl	$.LC4, %esi
	movl	$_ZSt4cout, %edi
	call	_ZStlsISt11char_traitsIcEERSt13basic_ostreamIcT_ES5_PKc
	movq	%rax, %rbx
	call	getpid
	movl	%eax, %esi
	movq	%rbx, %rdi
	call	_ZNSolsEi
	movl	$.LC6, %esi
	movq	%rax, %rdi
	call	_ZStlsISt11char_traitsIcEERSt13basic_ostreamIcT_ES5_PKc
	movq	%rax, %rdx
	movq	-40(%rbp), %rax
	movl	(%rax), %eax
	movl	%eax, %esi
	movq	%rdx, %rdi
	call	_ZNSolsEi
	movl	$.LC7, %esi
	movq	%rax, %rdi
	call	_ZStlsISt11char_traitsIcEERSt13basic_ostreamIcT_ES5_PKc
	movl	$_ZSt4endlIcSt11char_traitsIcEERSt13basic_ostreamIT_T0_ES6_, %esi
	movq	%rax, %rdi
	call	_ZNSolsEPFRSoS_E
	movl	$.LC8, %esi
	movl	$_ZSt4cout, %edi
	call	_ZStlsISt11char_traitsIcEERSt13basic_ostreamIcT_ES5_PKc
	movq	%rax, %rbx
	call	getpid
	movl	%eax, %esi
	movq	%rbx, %rdi
	call	_ZNSolsEi
	movl	$.LC9, %esi
	movq	%rax, %rdi
	call	_ZStlsISt11char_traitsIcEERSt13basic_ostreamIcT_ES5_PKc
	movq	%rax, %rdx
	movl	-48(%rbp), %eax
	movl	%eax, %esi
	movq	%rdx, %rdi
	call	_ZNSolsEi
	movl	$.LC10, %esi
	movq	%rax, %rdi
	call	_ZStlsISt11char_traitsIcEERSt13basic_ostreamIcT_ES5_PKc
	movl	$_ZSt4endlIcSt11char_traitsIcEERSt13basic_ostreamIT_T0_ES6_, %esi
	movq	%rax, %rdi
	call	_ZNSolsEPFRSoS_E
	movq	$0, -64(%rbp)
	movl	-48(%rbp), %eax
	cltq
	movq	%rax, -56(%rbp)
	leaq	-80(%rbp), %rdx
	leaq	-64(%rbp), %rax
	movq	%rdx, %rsi
	movq	%rax, %rdi
	call	nanosleep
	shrl	$31, %eax
	testb	%al, %al
	je	.L10
	movl	$.LC11, %edi
	call	puts
	movl	$0, %eax
	jmp	.L15
.L10:
	movl	$.LC8, %esi
	movl	$_ZSt4cout, %edi
	call	_ZStlsISt11char_traitsIcEERSt13basic_ostreamIcT_ES5_PKc
	movq	%rax, %rbx
	call	getpid
	movl	%eax, %esi
	movq	%rbx, %rdi
	call	_ZNSolsEi
	movl	$.LC12, %esi
	movq	%rax, %rdi
	call	_ZStlsISt11char_traitsIcEERSt13basic_ostreamIcT_ES5_PKc
	movl	$_ZSt4endlIcSt11char_traitsIcEERSt13basic_ostreamIT_T0_ES6_, %esi
	movq	%rax, %rdi
	call	_ZNSolsEPFRSoS_E
	addl	$1, -24(%rbp)
.L9:
	movl	-24(%rbp), %eax
	cmpl	-44(%rbp), %eax
	jl	.L11
	movl	-32(%rbp), %eax
	movl	%eax, %edi
	call	close
	movl	$.LC0, %edi
	call	shm_unlink
	movl	$0, %edi
	call	exit
.L8:
	addl	$1, -20(%rbp)
.L7:
	movl	-20(%rbp), %eax
	cmpl	-44(%rbp), %eax
	jl	.L12
	movl	$0, -28(%rbp)
	jmp	.L13
.L14:
	movl	$.LC13, %esi
	movl	$_ZSt4cout, %edi
	call	_ZStlsISt11char_traitsIcEERSt13basic_ostreamIcT_ES5_PKc
	movl	$_ZSt4endlIcSt11char_traitsIcEERSt13basic_ostreamIT_T0_ES6_, %esi
	movq	%rax, %rdi
	call	_ZNSolsEPFRSoS_E
	movl	$0, %edi
	call	wait
	addl	$1, -28(%rbp)
.L13:
	movl	-28(%rbp), %eax
	cmpl	-44(%rbp), %eax
	jl	.L14
	movl	$.LC14, %esi
	movl	$_ZSt4cout, %edi
	call	_ZStlsISt11char_traitsIcEERSt13basic_ostreamIcT_ES5_PKc
	movq	%rax, %rdx
	movq	-40(%rbp), %rax
	movl	(%rax), %eax
	movl	%eax, %esi
	movq	%rdx, %rdi
	call	_ZNSolsEi
	movl	$.LC15, %esi
	movq	%rax, %rdi
	call	_ZStlsISt11char_traitsIcEERSt13basic_ostreamIcT_ES5_PKc
	movq	%rax, %rbx
	movl	-44(%rbp), %eax
	movl	$2, %esi
	movl	%eax, %edi
	call	_ZSt3powIiiEN9__gnu_cxx11__promote_2IDTplcvNS1_IT_XsrSt12__is_integerIS2_E7__valueEE6__typeELi0EcvNS1_IT0_XsrS3_IS7_E7__valueEE6__typeELi0EEXsrS3_ISB_E7__valueEE6__typeES2_S7_
	movq	%xmm0, %rax
	movq	%rax, %xmm0
	movq	%rbx, %rdi
	call	_ZNSolsEd
	movl	$_ZSt4endlIcSt11char_traitsIcEERSt13basic_ostreamIT_T0_ES6_, %esi
	movq	%rax, %rdi
	call	_ZNSolsEPFRSoS_E
	movl	$0, %eax
.L15:
	movq	-8(%rbp), %rbx
	leave
	.cfi_def_cfa 7, 8
	ret
	.cfi_endproc
.LFE2486:
	.size	main, .-main
	.section	.text._ZSt3powIiiEN9__gnu_cxx11__promote_2IDTplcvNS1_IT_XsrSt12__is_integerIS2_E7__valueEE6__typeELi0EcvNS1_IT0_XsrS3_IS7_E7__valueEE6__typeELi0EEXsrS3_ISB_E7__valueEE6__typeES2_S7_,"axG",@progbits,_ZSt3powIiiEN9__gnu_cxx11__promote_2IDTplcvNS1_IT_XsrSt12__is_integerIS2_E7__valueEE6__typeELi0EcvNS1_IT0_XsrS3_IS7_E7__valueEE6__typeELi0EEXsrS3_ISB_E7__valueEE6__typeES2_S7_,comdat
	.weak	_ZSt3powIiiEN9__gnu_cxx11__promote_2IDTplcvNS1_IT_XsrSt12__is_integerIS2_E7__valueEE6__typeELi0EcvNS1_IT0_XsrS3_IS7_E7__valueEE6__typeELi0EEXsrS3_ISB_E7__valueEE6__typeES2_S7_
	.type	_ZSt3powIiiEN9__gnu_cxx11__promote_2IDTplcvNS1_IT_XsrSt12__is_integerIS2_E7__valueEE6__typeELi0EcvNS1_IT0_XsrS3_IS7_E7__valueEE6__typeELi0EEXsrS3_ISB_E7__valueEE6__typeES2_S7_, @function
_ZSt3powIiiEN9__gnu_cxx11__promote_2IDTplcvNS1_IT_XsrSt12__is_integerIS2_E7__valueEE6__typeELi0EcvNS1_IT0_XsrS3_IS7_E7__valueEE6__typeELi0EEXsrS3_ISB_E7__valueEE6__typeES2_S7_:
.LFB2820:
	.cfi_startproc
	pushq	%rbp
	.cfi_def_cfa_offset 16
	.cfi_offset 6, -16
	movq	%rsp, %rbp
	.cfi_def_cfa_register 6
	subq	$16, %rsp
	movl	%edi, -4(%rbp)
	movl	%esi, -8(%rbp)
	pxor	%xmm0, %xmm0
	cvtsi2sdl	-8(%rbp), %xmm0
	pxor	%xmm2, %xmm2
	cvtsi2sdl	-4(%rbp), %xmm2
	movq	%xmm2, %rax
	movapd	%xmm0, %xmm1
	movq	%rax, %xmm0
	call	pow
	movq	%xmm0, %rax
	movq	%rax, %xmm0
	leave
	.cfi_def_cfa 7, 8
	ret
	.cfi_endproc
.LFE2820:
	.size	_ZSt3powIiiEN9__gnu_cxx11__promote_2IDTplcvNS1_IT_XsrSt12__is_integerIS2_E7__valueEE6__typeELi0EcvNS1_IT0_XsrS3_IS7_E7__valueEE6__typeELi0EEXsrS3_ISB_E7__valueEE6__typeES2_S7_, .-_ZSt3powIiiEN9__gnu_cxx11__promote_2IDTplcvNS1_IT_XsrSt12__is_integerIS2_E7__valueEE6__typeELi0EcvNS1_IT0_XsrS3_IS7_E7__valueEE6__typeELi0EEXsrS3_ISB_E7__valueEE6__typeES2_S7_
	.text
	.type	_Z41__static_initialization_and_destruction_0ii, @function
_Z41__static_initialization_and_destruction_0ii:
.LFB3188:
	.cfi_startproc
	pushq	%rbp
	.cfi_def_cfa_offset 16
	.cfi_offset 6, -16
	movq	%rsp, %rbp
	.cfi_def_cfa_register 6
	subq	$16, %rsp
	movl	%edi, -4(%rbp)
	movl	%esi, -8(%rbp)
	cmpl	$1, -4(%rbp)
	jne	.L20
	cmpl	$65535, -8(%rbp)
	jne	.L20
	movl	$_ZStL8__ioinit, %edi
	call	_ZNSt8ios_base4InitC1Ev
	movl	$__dso_handle, %edx
	movl	$_ZStL8__ioinit, %esi
	movl	$_ZNSt8ios_base4InitD1Ev, %edi
	call	__cxa_atexit
.L20:
	nop
	leave
	.cfi_def_cfa 7, 8
	ret
	.cfi_endproc
.LFE3188:
	.size	_Z41__static_initialization_and_destruction_0ii, .-_Z41__static_initialization_and_destruction_0ii
	.type	_GLOBAL__sub_I_main, @function
_GLOBAL__sub_I_main:
.LFB3189:
	.cfi_startproc
	pushq	%rbp
	.cfi_def_cfa_offset 16
	.cfi_offset 6, -16
	movq	%rsp, %rbp
	.cfi_def_cfa_register 6
	movl	$65535, %esi
	movl	$1, %edi
	call	_Z41__static_initialization_and_destruction_0ii
	popq	%rbp
	.cfi_def_cfa 7, 8
	ret
	.cfi_endproc
.LFE3189:
	.size	_GLOBAL__sub_I_main, .-_GLOBAL__sub_I_main
	.section	.init_array,"aw"
	.align 8
	.quad	_GLOBAL__sub_I_main
	.hidden	__dso_handle
	.ident	"GCC: (GNU) 12.2.1 20220819 (Red Hat 12.2.1-2)"
	.section	.note.GNU-stack,"",@progbits
